; Function Attrs: mustprogress nofree norecurse nosync nounwind willreturn memory(argmem: read) uwtable
define noundef double @_ZNK8QuantLib13DigitalCoupon16putDigitalPayoffEv(ptr nocapture noundef nonnull readonly align 8 dereferenceable(289) %this) local_unnamed_addr #14 align 2 {
entry:
  %isPutCashOrNothing_ = getelementptr inbounds nuw i8, ptr %this, i64 227
  %0 = load i8, ptr %isPutCashOrNothing_, align 1, !tbaa !69, !range !26, !noundef !27
  %loadedv = trunc nuw i8 %0 to i1
  %putDigitalPayoff_ = getelementptr inbounds nuw i8, ptr %this, i64 240
  %1 = load double, ptr %putDigitalPayoff_, align 8
  %retval.0 = select i1 %loadedv, double %1, double 0x47EFFFFFE0000000
  ret double %retval.0
}